TN:
SF:/home/swarajmrao/ENPM700/v2/ENPM700-TDD-Group2/libs/pid/PIDController.hpp
FN:44,_ZN13PIDController7computeEdd
FNDA:1,_ZN13PIDController7computeEdd
FNF:1
FNH:1
DA:44,1
DA:45,1
LF:2
LH:2
end_of_record
TN:
SF:/home/swarajmrao/ENPM700/v2/ENPM700-TDD-Group2/libs/pid/PidController.cpp
FN:4,_ZN13PIDControllerC2Eddd
FNDA:3,_ZN13PIDControllerC2Eddd
FNF:1
FNH:1
DA:4,3
DA:6,3
LF:2
LH:2
end_of_record
TN:
SF:/home/swarajmrao/ENPM700/v2/ENPM700-TDD-Group2/test/test1.cpp
FN:7,_ZN61PIDControllerTest_ComputeMethodShouldReturnZeroInitially_Test8TestBodyEv
FN:7,_ZN61PIDControllerTest_ComputeMethodShouldReturnZeroInitially_TestD0Ev
FN:7,_ZN61PIDControllerTest_ComputeMethodShouldReturnZeroInitially_TestD2Ev
FN:7,_ZN61PIDControllerTest_ComputeMethodShouldReturnZeroInitially_TestC2Ev
FNDA:1,_ZN61PIDControllerTest_ComputeMethodShouldReturnZeroInitially_Test8TestBodyEv
FNDA:1,_ZN61PIDControllerTest_ComputeMethodShouldReturnZeroInitially_TestD0Ev
FNDA:1,_ZN61PIDControllerTest_ComputeMethodShouldReturnZeroInitially_TestD2Ev
FNDA:1,_ZN61PIDControllerTest_ComputeMethodShouldReturnZeroInitially_TestC2Ev
FNF:4
FNH:4
DA:7,4
DA:9,1
DA:12,1
DA:15,1
DA:16,1
LF:5
LH:5
end_of_record
TN:
SF:/home/swarajmrao/ENPM700/v2/ENPM700-TDD-Group2/test/test2.cpp
FN:7,_ZN63PIDControllerTest_ConstructorShouldInitializeWithoutErrors_TestC2Ev
FN:7,_ZN63PIDControllerTest_ConstructorShouldInitializeWithoutErrors_Test8TestBodyEv
FN:7,_ZN63PIDControllerTest_ConstructorShouldInitializeWithoutErrors_TestD0Ev
FN:7,_ZN63PIDControllerTest_ConstructorShouldInitializeWithoutErrors_TestD2Ev
FNDA:1,_ZN63PIDControllerTest_ConstructorShouldInitializeWithoutErrors_TestD0Ev
FNDA:1,_ZN63PIDControllerTest_ConstructorShouldInitializeWithoutErrors_Test8TestBodyEv
FNDA:1,_ZN63PIDControllerTest_ConstructorShouldInitializeWithoutErrors_TestC2Ev
FNDA:1,_ZN63PIDControllerTest_ConstructorShouldInitializeWithoutErrors_TestD2Ev
FNF:4
FNH:4
DA:7,4
DA:9,1
DA:12,1
LF:3
LH:3
end_of_record
